; ModuleID = 'bench/libquic/original/t_bitst.ll'
source_filename = "bench/libquic/original/t_bitst.ll"
target datalayout = "e-m:e-p270:32:32-p271:32:32-p272:64:64-i64:64-i128:128-f80:128-n8:16:32:64-S128"
target triple = "x86_64-pc-linux-gnu"

@.str = private unnamed_addr constant [4 x i8] c"%*s\00", align 1
@.str.1 = private unnamed_addr constant [1 x i8] zeroinitializer, align 1
@.str.2 = private unnamed_addr constant [3 x i8] c", \00", align 1
@.str.3 = private unnamed_addr constant [2 x i8] c"\0A\00", align 1

; Function Attrs: nounwind uwtable
define hidden noundef i32 @ASN1_BIT_STRING_name_print(ptr noundef %0, ptr noundef %1, ptr noundef readonly captures(none) %2, i32 noundef %3) local_unnamed_addr #0 {
  %5 = tail call i32 (ptr, ptr, ...) @BIO_printf(ptr noundef %0, ptr noundef nonnull @.str, i32 noundef %3, ptr noundef nonnull @.str.1) #4
  %6 = getelementptr inbounds nuw i8, ptr %2, i64 8
  %7 = load ptr, ptr %6, align 8, !tbaa !6
  %.not14 = icmp eq ptr %7, null
  br i1 %.not14, label %._crit_edge, label %.lr.ph

.lr.ph:                                           ; preds = %4, %17
  %8 = phi ptr [ %19, %17 ], [ %6, %4 ]
  %.016 = phi i8 [ %.1, %17 ], [ 1, %4 ]
  %.01115 = phi ptr [ %18, %17 ], [ %2, %4 ]
  %9 = load i32, ptr %.01115, align 8, !tbaa !13
  %10 = tail call i32 @ASN1_BIT_STRING_get_bit(ptr noundef %1, i32 noundef %9) #4
  %.not12 = icmp eq i32 %10, 0
  br i1 %.not12, label %17, label %11

11:                                               ; preds = %.lr.ph
  %.not13 = icmp eq i8 %.016, 0
  br i1 %.not13, label %12, label %14

12:                                               ; preds = %11
  %13 = tail call i32 @BIO_puts(ptr noundef %0, ptr noundef nonnull @.str.2) #4
  br label %14

14:                                               ; preds = %12, %11
  %15 = load ptr, ptr %8, align 8, !tbaa !6
  %16 = tail call i32 @BIO_puts(ptr noundef %0, ptr noundef %15) #4
  br label %17

17:                                               ; preds = %.lr.ph, %14
  %.1 = phi i8 [ 0, %14 ], [ %.016, %.lr.ph ]
  %18 = getelementptr inbounds nuw i8, ptr %.01115, i64 24
  %19 = getelementptr inbounds nuw i8, ptr %.01115, i64 32
  %20 = load ptr, ptr %19, align 8, !tbaa !6
  %.not = icmp eq ptr %20, null
  br i1 %.not, label %._crit_edge, label %.lr.ph, !llvm.loop !14

._crit_edge:                                      ; preds = %17, %4
  %21 = tail call i32 @BIO_puts(ptr noundef %0, ptr noundef nonnull @.str.3) #4
  ret i32 1
}

declare i32 @BIO_printf(ptr noundef, ptr noundef, ...) local_unnamed_addr #1

declare i32 @ASN1_BIT_STRING_get_bit(ptr noundef, i32 noundef) local_unnamed_addr #1

declare i32 @BIO_puts(ptr noundef, ptr noundef) local_unnamed_addr #1

; Function Attrs: nounwind uwtable
define hidden range(i32 0, 2) i32 @ASN1_BIT_STRING_set_asc(ptr noundef %0, ptr noundef readonly captures(none) %1, i32 noundef %2, ptr noundef readonly captures(none) %3) local_unnamed_addr #0 {
  %5 = getelementptr inbounds nuw i8, ptr %3, i64 8
  %6 = load ptr, ptr %5, align 8, !tbaa !6
  %.not13.i = icmp eq ptr %6, null
  br i1 %.not13.i, label %ASN1_BIT_STRING_num_asc.exit.thread, label %.lr.ph.i

.lr.ph.i:                                         ; preds = %4, %13
  %7 = phi ptr [ %16, %13 ], [ %6, %4 ]
  %.014.i = phi ptr [ %14, %13 ], [ %3, %4 ]
  %8 = getelementptr inbounds nuw i8, ptr %.014.i, i64 16
  %9 = load ptr, ptr %8, align 8, !tbaa !16
  %10 = tail call i32 @strcmp(ptr noundef nonnull dereferenceable(1) %9, ptr noundef nonnull readonly dereferenceable(1) %1) #5
  %.not10.i = icmp eq i32 %10, 0
  br i1 %.not10.i, label %ASN1_BIT_STRING_num_asc.exit, label %11

11:                                               ; preds = %.lr.ph.i
  %12 = tail call i32 @strcmp(ptr noundef nonnull dereferenceable(1) %7, ptr noundef nonnull readonly dereferenceable(1) %1) #5
  %.not11.i = icmp eq i32 %12, 0
  br i1 %.not11.i, label %ASN1_BIT_STRING_num_asc.exit, label %13

13:                                               ; preds = %11
  %14 = getelementptr inbounds nuw i8, ptr %.014.i, i64 24
  %15 = getelementptr inbounds nuw i8, ptr %.014.i, i64 32
  %16 = load ptr, ptr %15, align 8, !tbaa !6
  %.not.i = icmp eq ptr %16, null
  br i1 %.not.i, label %ASN1_BIT_STRING_num_asc.exit.thread, label %.lr.ph.i, !llvm.loop !17

ASN1_BIT_STRING_num_asc.exit:                     ; preds = %.lr.ph.i, %11
  %17 = load i32, ptr %.014.i, align 8, !tbaa !13
  %18 = icmp slt i32 %17, 0
  br i1 %18, label %ASN1_BIT_STRING_num_asc.exit.thread, label %19

19:                                               ; preds = %ASN1_BIT_STRING_num_asc.exit
  %.not = icmp eq ptr %0, null
  br i1 %.not, label %22, label %20

20:                                               ; preds = %19
  %21 = tail call i32 @ASN1_BIT_STRING_set_bit(ptr noundef nonnull %0, i32 noundef %17, i32 noundef %2) #4
  %.not9 = icmp eq i32 %21, 0
  br i1 %.not9, label %ASN1_BIT_STRING_num_asc.exit.thread, label %22

22:                                               ; preds = %20, %19
  br label %ASN1_BIT_STRING_num_asc.exit.thread

ASN1_BIT_STRING_num_asc.exit.thread:              ; preds = %13, %4, %20, %ASN1_BIT_STRING_num_asc.exit, %22
  %.0 = phi i32 [ 1, %22 ], [ 0, %ASN1_BIT_STRING_num_asc.exit ], [ 0, %20 ], [ 0, %4 ], [ 0, %13 ]
  ret i32 %.0
}

; Function Attrs: nofree nounwind memory(read, inaccessiblemem: none) uwtable
define hidden i32 @ASN1_BIT_STRING_num_asc(ptr noundef readonly captures(none) %0, ptr noundef readonly captures(none) %1) local_unnamed_addr #2 {
  %3 = getelementptr inbounds nuw i8, ptr %1, i64 8
  %4 = load ptr, ptr %3, align 8, !tbaa !6
  %.not13 = icmp eq ptr %4, null
  br i1 %.not13, label %.loopexit, label %.lr.ph

.lr.ph:                                           ; preds = %2, %13
  %5 = phi ptr [ %16, %13 ], [ %4, %2 ]
  %.014 = phi ptr [ %14, %13 ], [ %1, %2 ]
  %6 = getelementptr inbounds nuw i8, ptr %.014, i64 16
  %7 = load ptr, ptr %6, align 8, !tbaa !16
  %8 = tail call i32 @strcmp(ptr noundef nonnull dereferenceable(1) %7, ptr noundef nonnull dereferenceable(1) %0) #5
  %.not10 = icmp eq i32 %8, 0
  br i1 %.not10, label %11, label %9

9:                                                ; preds = %.lr.ph
  %10 = tail call i32 @strcmp(ptr noundef nonnull dereferenceable(1) %5, ptr noundef nonnull dereferenceable(1) %0) #5
  %.not11 = icmp eq i32 %10, 0
  br i1 %.not11, label %11, label %13

11:                                               ; preds = %9, %.lr.ph
  %12 = load i32, ptr %.014, align 8, !tbaa !13
  br label %.loopexit

13:                                               ; preds = %9
  %14 = getelementptr inbounds nuw i8, ptr %.014, i64 24
  %15 = getelementptr inbounds nuw i8, ptr %.014, i64 32
  %16 = load ptr, ptr %15, align 8, !tbaa !6
  %.not = icmp eq ptr %16, null
  br i1 %.not, label %.loopexit, label %.lr.ph, !llvm.loop !17

.loopexit:                                        ; preds = %13, %2, %11
  %.08 = phi i32 [ %12, %11 ], [ -1, %2 ], [ -1, %13 ]
  ret i32 %.08
}

declare i32 @ASN1_BIT_STRING_set_bit(ptr noundef, i32 noundef, i32 noundef) local_unnamed_addr #1

; Function Attrs: mustprogress nofree nounwind willreturn memory(argmem: read)
declare i32 @strcmp(ptr noundef captures(none), ptr noundef captures(none)) local_unnamed_addr #3


!llvm.module.flags = !{!0, !1, !2, !3, !4, !5}

!0 = !{i32 7, !"Dwarf Version", i32 5}
!1 = !{i32 2, !"Debug Info Version", i32 3}
!2 = !{i32 1, !"wchar_size", i32 4}
!3 = !{i32 8, !"PIC Level", i32 1}
!4 = !{i32 7, !"uwtable", i32 2}
!5 = !{i32 7, !"debug-info-assignment-tracking", i1 true}
!6 = !{!7, !11, i64 8}
!7 = !{!"BIT_STRING_BITNAME_st", !8, i64 0, !11, i64 8, !11, i64 16}
!8 = !{!"int", !9, i64 0}
!9 = !{!"omnipotent char", !10, i64 0}
!10 = !{!"Simple C/C++ TBAA"}
!11 = !{!"p1 omnipotent char", !12, i64 0}
!12 = !{!"any pointer", !9, i64 0}
!13 = !{!7, !8, i64 0}
!14 = distinct !{!14, !15}
!15 = !{!"llvm.loop.mustprogress"}
!16 = !{!7, !11, i64 16}
!17 = distinct !{!17, !15}
